target datalayout = "e-m:e-p270:32:32-p271:32:32-p272:64:64-i64:64-i128:128-f80:128-n8:16:32:64-S128"
target triple = "x86_64-pc-linux-gnu"

; Function Attrs: inlinehint nounwind uwtable
define internal i32 @value_barrier_32(i32 noundef %0) #2 {
  %2 = alloca i32, align 4
  %3 = alloca i32, align 4
  store i32 %0, ptr %2, align 4, !tbaa !3
  call void @llvm.lifetime.start.p0(i64 4, ptr %3) #3
  %4 = load i32, ptr %2, align 4, !tbaa !3
  %5 = call i32 asm "", "=r,0,~{dirflag},~{fpsr},~{flags}"(i32 %4) #4, !srcloc !11
  store i32 %5, ptr %3, align 4, !tbaa !3
  %6 = load i32, ptr %3, align 4, !tbaa !3
  call void @llvm.lifetime.end.p0(i64 4, ptr %3) #3
  ret i32 %6
}

; Function Attrs: inlinehint nounwind uwtable
define internal i32 @constant_time_msb_32(i32 noundef %0) #2 {
  %2 = alloca i32, align 4
  store i32 %0, ptr %2, align 4, !tbaa !3
  %3 = load i32, ptr %2, align 4, !tbaa !3
  %4 = lshr i32 %3, 31
  %5 = sub i32 0, %4
  ret i32 %5
}

; Function Attrs: inlinehint nounwind uwtable
define internal i32 @value_barrier(i32 noundef %0) #2 {
  %2 = alloca i32, align 4
  %3 = alloca i32, align 4
  store i32 %0, ptr %2, align 4, !tbaa !3
  call void @llvm.lifetime.start.p0(i64 4, ptr %3) #3
  %4 = load i32, ptr %2, align 4, !tbaa !3
  %5 = call i32 asm "", "=r,0,~{dirflag},~{fpsr},~{flags}"(i32 %4) #4, !srcloc !10
  store i32 %5, ptr %3, align 4, !tbaa !3
  %6 = load i32, ptr %3, align 4, !tbaa !3
  call void @llvm.lifetime.end.p0(i64 4, ptr %3) #3
  ret i32 %6
}

; Function Attrs: inlinehint nounwind uwtable
define internal i32 @constant_time_select_32(i32 noundef %0, i32 noundef %1, i32 noundef %2) #2 {
  %4 = alloca i32, align 4
  %5 = alloca i32, align 4
  %6 = alloca i32, align 4
  store i32 %0, ptr %4, align 4, !tbaa !3
  store i32 %1, ptr %5, align 4, !tbaa !3
  store i32 %2, ptr %6, align 4, !tbaa !3
  %7 = load i32, ptr %4, align 4, !tbaa !3
  %8 = call i32 @value_barrier_32(i32 noundef %7)
  %9 = load i32, ptr %5, align 4, !tbaa !3
  %10 = and i32 %8, %9
  %11 = load i32, ptr %4, align 4, !tbaa !3
  %12 = xor i32 %11, -1
  %13 = call i32 @value_barrier_32(i32 noundef %12)
  %14 = load i32, ptr %6, align 4, !tbaa !3
  %15 = and i32 %13, %14
  %16 = or i32 %10, %15
  ret i32 %16
}

; Function Attrs: inlinehint nounwind uwtable
define internal i32 @constant_time_lt_32(i32 noundef %0, i32 noundef %1) #2 {
  %3 = alloca i32, align 4
  %4 = alloca i32, align 4
  store i32 %0, ptr %3, align 4, !tbaa !3
  store i32 %1, ptr %4, align 4, !tbaa !3
  %5 = load i32, ptr %3, align 4, !tbaa !3
  %6 = load i32, ptr %3, align 4, !tbaa !3
  %7 = load i32, ptr %4, align 4, !tbaa !3
  %8 = xor i32 %6, %7
  %9 = load i32, ptr %3, align 4, !tbaa !3
  %10 = load i32, ptr %4, align 4, !tbaa !3
  %11 = sub i32 %9, %10
  %12 = load i32, ptr %4, align 4, !tbaa !3
  %13 = xor i32 %11, %12
  %14 = or i32 %8, %13
  %15 = xor i32 %5, %14
  %16 = call i32 @constant_time_msb_32(i32 noundef %15)
  ret i32 %16
}

; Function Attrs: inlinehint nounwind uwtable
define internal i32 @constant_time_select(i32 noundef %0, i32 noundef %1, i32 noundef %2) #2 {
  %4 = alloca i32, align 4
  %5 = alloca i32, align 4
  %6 = alloca i32, align 4
  store i32 %0, ptr %4, align 4, !tbaa !3
  store i32 %1, ptr %5, align 4, !tbaa !3
  store i32 %2, ptr %6, align 4, !tbaa !3
  %7 = load i32, ptr %4, align 4, !tbaa !3
  %8 = call i32 @value_barrier(i32 noundef %7)
  %9 = load i32, ptr %5, align 4, !tbaa !3
  %10 = and i32 %8, %9
  %11 = load i32, ptr %4, align 4, !tbaa !3
  %12 = xor i32 %11, -1
  %13 = call i32 @value_barrier(i32 noundef %12)
  %14 = load i32, ptr %6, align 4, !tbaa !3
  %15 = and i32 %13, %14
  %16 = or i32 %10, %15
  ret i32 %16
}

; Function Attrs: inlinehint nounwind uwtable
define internal i32 @constant_time_msb(i32 noundef %0) #2 {
  %2 = alloca i32, align 4
  store i32 %0, ptr %2, align 4, !tbaa !3
  %3 = load i32, ptr %2, align 4, !tbaa !3
  %4 = lshr i32 %3, 31
  %5 = sub i32 0, %4
  ret i32 %5
}

; Function Attrs: inlinehint nounwind uwtable
define internal i32 @reduce_once(i32 noundef %0) #2 {
  %2 = alloca i32, align 4
  store i32 %0, ptr %2, align 4, !tbaa !3
  %3 = load i32, ptr %2, align 4, !tbaa !3
  %4 = call i32 @constant_time_lt_32(i32 noundef %3, i32 noundef 8380417)
  %5 = load i32, ptr %2, align 4, !tbaa !3
  %6 = load i32, ptr %2, align 4, !tbaa !3
  %7 = sub i32 %6, 8380417
  %8 = call i32 @constant_time_select_32(i32 noundef %4, i32 noundef %5, i32 noundef %7)
  ret i32 %8
}

; Function Attrs: inlinehint nounwind uwtable
define internal i32 @constant_time_select_int(i32 noundef %0, i32 noundef %1, i32 noundef %2) #2 {
  %4 = alloca i32, align 4
  %5 = alloca i32, align 4
  %6 = alloca i32, align 4
  store i32 %0, ptr %4, align 4, !tbaa !3
  store i32 %1, ptr %5, align 4, !tbaa !3
  store i32 %2, ptr %6, align 4, !tbaa !3
  %7 = load i32, ptr %4, align 4, !tbaa !3
  %8 = load i32, ptr %5, align 4, !tbaa !3
  %9 = load i32, ptr %6, align 4, !tbaa !3
  %10 = call i32 @constant_time_select(i32 noundef %7, i32 noundef %8, i32 noundef %9)
  ret i32 %10
}

; Function Attrs: inlinehint nounwind uwtable
define internal i32 @constant_time_lt(i32 noundef %0, i32 noundef %1) #2 {
  %3 = alloca i32, align 4
  %4 = alloca i32, align 4
  store i32 %0, ptr %3, align 4, !tbaa !3
  store i32 %1, ptr %4, align 4, !tbaa !3
  %5 = load i32, ptr %3, align 4, !tbaa !3
  %6 = load i32, ptr %3, align 4, !tbaa !3
  %7 = load i32, ptr %4, align 4, !tbaa !3
  %8 = xor i32 %6, %7
  %9 = load i32, ptr %3, align 4, !tbaa !3
  %10 = load i32, ptr %4, align 4, !tbaa !3
  %11 = sub i32 %9, %10
  %12 = load i32, ptr %4, align 4, !tbaa !3
  %13 = xor i32 %11, %12
  %14 = or i32 %8, %13
  %15 = xor i32 %5, %14
  %16 = call i32 @constant_time_msb(i32 noundef %15)
  ret i32 %16
}

; Function Attrs: inlinehint nounwind uwtable
define internal i32 @mod_sub(i32 noundef %0, i32 noundef %1) #2 {
  %3 = alloca i32, align 4
  %4 = alloca i32, align 4
  store i32 %0, ptr %3, align 4, !tbaa !3
  store i32 %1, ptr %4, align 4, !tbaa !3
  %5 = load i32, ptr %3, align 4, !tbaa !3
  %6 = add i32 8380417, %5
  %7 = load i32, ptr %4, align 4, !tbaa !3
  %8 = sub i32 %6, %7
  %9 = call i32 @reduce_once(i32 noundef %8)
  ret i32 %9
}

; Function Attrs: nounwind uwtable
define void @ossl_ml_dsa_key_compress_power2_round(i32 noundef %0, ptr noundef %1, ptr noundef %2) #0 {
  %4 = alloca i32, align 4
  %5 = alloca ptr, align 8
  %6 = alloca ptr, align 8
  %7 = alloca i32, align 4
  %8 = alloca i32, align 4
  %9 = alloca i32, align 4
  store i32 %0, ptr %4, align 4, !tbaa !3
  store ptr %1, ptr %5, align 8, !tbaa !7
  store ptr %2, ptr %6, align 8, !tbaa !7
  call void @llvm.lifetime.start.p0(i64 4, ptr %7) #3
  call void @llvm.lifetime.start.p0(i64 4, ptr %8) #3
  call void @llvm.lifetime.start.p0(i64 4, ptr %9) #3
  %10 = load i32, ptr %4, align 4, !tbaa !3
  %11 = lshr i32 %10, 13
  %12 = load ptr, ptr %5, align 8, !tbaa !7
  store i32 %11, ptr %12, align 4, !tbaa !3
  %13 = load i32, ptr %4, align 4, !tbaa !3
  %14 = load ptr, ptr %5, align 8, !tbaa !7
  %15 = load i32, ptr %14, align 4, !tbaa !3
  %16 = shl i32 %15, 13
  %17 = sub i32 %13, %16
  %18 = load ptr, ptr %6, align 8, !tbaa !7
  store i32 %17, ptr %18, align 4, !tbaa !3
  %19 = load ptr, ptr %6, align 8, !tbaa !7
  %20 = load i32, ptr %19, align 4, !tbaa !3
  %21 = call i32 @mod_sub(i32 noundef %20, i32 noundef 8192)
  store i32 %21, ptr %8, align 4, !tbaa !3
  %22 = load ptr, ptr %5, align 8, !tbaa !7
  %23 = load i32, ptr %22, align 4, !tbaa !3
  %24 = add i32 %23, 1
  store i32 %24, ptr %9, align 4, !tbaa !3
  %25 = load ptr, ptr %6, align 8, !tbaa !7
  %26 = load i32, ptr %25, align 4, !tbaa !3
  %27 = call i32 @constant_time_lt(i32 noundef 4096, i32 noundef %26)
  store i32 %27, ptr %7, align 4, !tbaa !3
  %28 = load i32, ptr %7, align 4, !tbaa !3
  %29 = load i32, ptr %8, align 4, !tbaa !3
  %30 = load ptr, ptr %6, align 8, !tbaa !7
  %31 = load i32, ptr %30, align 4, !tbaa !3
  %32 = call i32 @constant_time_select_int(i32 noundef %28, i32 noundef %29, i32 noundef %31)
  %33 = load ptr, ptr %6, align 8, !tbaa !7
  store i32 %32, ptr %33, align 4, !tbaa !3
  %34 = load i32, ptr %7, align 4, !tbaa !3
  %35 = load i32, ptr %9, align 4, !tbaa !3
  %36 = load ptr, ptr %5, align 8, !tbaa !7
  %37 = load i32, ptr %36, align 4, !tbaa !3
  %38 = call i32 @constant_time_select_int(i32 noundef %34, i32 noundef %35, i32 noundef %37)
  %39 = load ptr, ptr %5, align 8, !tbaa !7
  store i32 %38, ptr %39, align 4, !tbaa !3
  call void @llvm.lifetime.end.p0(i64 4, ptr %9) #3
  call void @llvm.lifetime.end.p0(i64 4, ptr %8) #3
  call void @llvm.lifetime.end.p0(i64 4, ptr %7) #3
  ret void
}