; Function Attrs: nounwind memory(argmem: readwrite) uwtable
define void @ossl_ml_dsa_key_compress_power2_round(i32 noundef %0, ptr noundef captures(none) initializes((0, 4)) %1, ptr noundef writeonly captures(none) initializes((0, 4)) %2) local_unnamed_addr #0 {
  %4 = lshr i32 %0, 13
  store i32 %4, ptr %1, align 4, !tbaa !3
  %5 = and i32 %0, 8191
  store i32 %5, ptr %2, align 4, !tbaa !3
  %6 = add nuw nsw i32 %5, 8372225
  %7 = or i32 %0, -8192
  %8 = tail call i32 asm "", "=r,0,~{dirflag},~{fpsr},~{flags}"(i32 range(i32 -1, 1) -1) #4, !srcloc !7
  %9 = and i32 %8, %6
  %10 = tail call i32 asm "", "=r,0,~{dirflag},~{fpsr},~{flags}"(i32 range(i32 -1, 1) 0) #4, !srcloc !7
  %11 = and i32 %10, %7
  %12 = or i32 %11, %9
  %13 = load i32, ptr %1, align 4, !tbaa !3
  %14 = add i32 %13, 1
  %15 = icmp samesign ugt i32 %5, 4096
  %.neg.i.i = sext i1 %15 to i32
  %16 = tail call i32 asm "", "=r,0,~{dirflag},~{fpsr},~{flags}"(i32 range(i32 -1, 1) %.neg.i.i) #4, !srcloc !8
  %17 = and i32 %16, %12
  %18 = xor i32 %.neg.i.i, -1
  %19 = tail call i32 asm "", "=r,0,~{dirflag},~{fpsr},~{flags}"(i32 range(i32 -1, 1) %18) #4, !srcloc !8
  %20 = and i32 %19, %5
  %21 = or i32 %20, %17
  store i32 %21, ptr %2, align 4, !tbaa !3
  %22 = load i32, ptr %1, align 4, !tbaa !3
  %23 = and i32 %16, %14
  %24 = and i32 %22, %19
  %25 = or i32 %24, %23
  store i32 %25, ptr %1, align 4, !tbaa !3
  ret void
}